target datalayout = "e-m:e-p270:32:32-p271:32:32-p272:64:64-i64:64-i128:128-f80:128-n8:16:32:64-S128"
target triple = "x86_64-pc-linux-gnu"

%struct.use_shape_plan_t = type { i32, ptr }

; Function Attrs: mustprogress uwtable
define internal void @_ZL16data_destroy_usePv(ptr noundef %0) #0 {
  %2 = alloca ptr, align 8
  %3 = alloca ptr, align 8
  store ptr %0, ptr %2, align 8
  %4 = load ptr, ptr %2, align 8
  store ptr %4, ptr %3, align 8
  %5 = load ptr, ptr %3, align 8
  %6 = getelementptr inbounds %struct.use_shape_plan_t, ptr %5, i32 0, i32 1
  %7 = load ptr, ptr %6, align 8
  %8 = icmp ne ptr %7, null
  br i1 %8, label %9, label %13

9:                                                ; preds = %1
  %10 = load ptr, ptr %3, align 8
  %11 = getelementptr inbounds %struct.use_shape_plan_t, ptr %10, i32 0, i32 1
  %12 = load ptr, ptr %11, align 8
  call void @_Z19data_destroy_arabicPv(ptr noundef %12)
  br label %13

13:                                               ; preds = %9, %1
  %14 = load ptr, ptr %2, align 8
  call void @free(ptr noundef %14) #8
  ret void
}