; Function Attrs: mustprogress uwtable
define internal void @_ZL16data_destroy_usePv(ptr nocapture noundef %0) #0 {
  %2 = getelementptr inbounds i8, ptr %0, i64 8
  %3 = load ptr, ptr %2, align 8
  %.not = icmp eq ptr %3, null
  br i1 %.not, label %5, label %4

4:                                                ; preds = %1
  tail call void @_Z19data_destroy_arabicPv(ptr noundef nonnull %3)
  br label %5

5:                                                ; preds = %4, %1
  tail call void @free(ptr noundef nonnull %0) #11
  ret void
}